target datalayout = "e-m:e-p270:32:32-p271:32:32-p272:64:64-i64:64-i128:128-f80:128-n8:16:32:64-S128"
target triple = "x86_64-pc-linux-gnu"

%struct.pg_conn = type { ptr, ptr, ptr, ptr, ptr, ptr, ptr, ptr, ptr, ptr, ptr, ptr, ptr, ptr, ptr, ptr, ptr, ptr, ptr, ptr, ptr, ptr, ptr, ptr, ptr, ptr, ptr, ptr, ptr, ptr, ptr, ptr, ptr, ptr, ptr, ptr, ptr, ptr, ptr, ptr, ptr, ptr, ptr, i8, ptr, i32, %struct.PGNoticeHooks, ptr, i32, i32, i32, i32, i32, [6 x i8], i8, i8, i32, i8, i8, i32, i8, i32, ptr, ptr, i32, i32, ptr, ptr, ptr, ptr, ptr, i32, %struct.SockAddr, %struct.SockAddr, i32, i32, i8, i8, i8, i8, i8, i8, ptr, i8, i32, [1 x ptr], i8, i8, ptr, ptr, i32, i32, i32, i8, i8, i32, i32, ptr, i8, i64, ptr, i64, ptr, i32, i32, ptr, i32, i8, i32, i32, i32, i32, ptr, %struct.pg_prng_state, ptr, i32, i32, i32, i32, ptr, i32, i32, i32, i32, ptr, i32, ptr, i8, ptr, ptr, ptr, i32, i8, i8, i8, i8, i8, i8, i8, i8, %struct.PQExpBufferData, i32, %struct.PQExpBufferData }
%struct.PGNoticeHooks = type { ptr, ptr, ptr, ptr }
%struct.SockAddr = type { %struct.sockaddr_storage, i32 }
%struct.sockaddr_storage = type { i16, [118 x i8], i64 }
%struct.pg_prng_state = type { i64, i64 }
%struct.PQExpBufferData = type { ptr, i64, i64 }

@.str.223 = private unnamed_addr constant [4 x i8] c"%s\0A\00", align 1
@.str.224 = private unnamed_addr constant [73 x i8] c"\09Is the server running locally and accepting connections on that socket?\00", align 1
@.str.225 = private unnamed_addr constant [70 x i8] c"\09Is the server running on that host and accepting TCP/IP connections?\00", align 1

; Function Attrs: nounwind uwtable
define internal void @connectFailureMessage(ptr noundef %0, i32 noundef %1) #0 {
  %3 = alloca ptr, align 8
  %4 = alloca i32, align 4
  %5 = alloca [256 x i8], align 16
  store ptr %0, ptr %3, align 8
  store i32 %1, ptr %4, align 4
  call void @llvm.lifetime.start.p0(i64 256, ptr %5) #12
  %6 = load ptr, ptr %3, align 8
  %7 = getelementptr inbounds nuw %struct.pg_conn, ptr %6, i32 0, i32 140
  %8 = load i32, ptr %4, align 4
  %9 = getelementptr inbounds [256 x i8], ptr %5, i64 0, i64 0
  %10 = call ptr @pg_strerror_r(i32 noundef %8, ptr noundef %9, i64 noundef 256)
  call void (ptr, ptr, ...) @appendPQExpBuffer(ptr noundef %7, ptr noundef @.str.223, ptr noundef %10)
  %11 = load ptr, ptr %3, align 8
  %12 = getelementptr inbounds nuw %struct.pg_conn, ptr %11, i32 0, i32 73
  %13 = getelementptr inbounds nuw %struct.SockAddr, ptr %12, i32 0, i32 0
  %14 = getelementptr inbounds nuw %struct.sockaddr_storage, ptr %13, i32 0, i32 0
  %15 = load i16, ptr %14, align 8
  %16 = zext i16 %15 to i32
  %17 = icmp eq i32 %16, 1
  br i1 %17, label %18, label %20

18:                                               ; preds = %2
  %19 = load ptr, ptr %3, align 8
  call void (ptr, ptr, ...) @libpq_append_conn_error(ptr noundef %19, ptr noundef @.str.224)
  br label %22

20:                                               ; preds = %2
  %21 = load ptr, ptr %3, align 8
  call void (ptr, ptr, ...) @libpq_append_conn_error(ptr noundef %21, ptr noundef @.str.225)
  br label %22

22:                                               ; preds = %20, %18
  call void @llvm.lifetime.end.p0(i64 256, ptr %5) #12
  ret void
}