; Function Attrs: nounwind uwtable
define internal fastcc void @connectFailureMessage(ptr noundef nonnull %0, i32 noundef %1) unnamed_addr #0 {
  %3 = alloca [256 x i8], align 16
  call void @llvm.lifetime.start.p0(i64 256, ptr nonnull %3) #25
  %4 = getelementptr inbounds nuw i8, ptr %0, i64 1120
  %5 = call ptr @pg_strerror_r(i32 noundef %1, ptr noundef nonnull %3, i64 noundef 256) #25
  call void (ptr, ptr, ...) @appendPQExpBuffer(ptr noundef nonnull %4, ptr noundef nonnull @.str.223, ptr noundef %5) #25
  %6 = getelementptr inbounds nuw i8, ptr %0, i64 664
  %7 = load i16, ptr %6, align 8
  %8 = icmp eq i16 %7, 1
  %.str.224..str.225 = select i1 %8, ptr @.str.224, ptr @.str.225
  call void (ptr, ptr, ...) @libpq_append_conn_error(ptr noundef nonnull %0, ptr noundef nonnull %.str.224..str.225) #25
  call void @llvm.lifetime.end.p0(i64 256, ptr nonnull %3) #25
  ret void
}